target datalayout = "e-m:e-p270:32:32-p271:32:32-p272:64:64-i64:64-i128:128-f80:128-n8:16:32:64-S128"
target triple = "x86_64-pc-linux-gnu"

; Function Attrs: mustprogress nounwind uwtable
define linkonce_odr noundef nonnull align 4 dereferenceable(4) ptr @_ZSt3minIfERKT_S2_S2_(ptr noundef nonnull align 4 dereferenceable(4) %0, ptr noundef nonnull align 4 dereferenceable(4) %1) #4 comdat {
  %3 = alloca ptr, align 8
  %4 = alloca ptr, align 8
  %5 = alloca ptr, align 8
  store ptr %0, ptr %4, align 8
  store ptr %1, ptr %5, align 8
  %6 = load ptr, ptr %5, align 8
  %7 = load float, ptr %6, align 4
  %8 = load ptr, ptr %4, align 8
  %9 = load float, ptr %8, align 4
  %10 = fcmp olt float %7, %9
  br i1 %10, label %11, label %13

11:                                               ; preds = %2
  %12 = load ptr, ptr %5, align 8
  store ptr %12, ptr %3, align 8
  br label %15

13:                                               ; preds = %2
  %14 = load ptr, ptr %4, align 8
  store ptr %14, ptr %3, align 8
  br label %15

15:                                               ; preds = %13, %11
  %16 = load ptr, ptr %3, align 8
  ret ptr %16
}

; Function Attrs: mustprogress uwtable
define void @_ZN22EditManipulatorsPlugin9DrawCubesEfff(ptr noundef nonnull align 8 dereferenceable(304) %0, float noundef %1, float noundef %2, float noundef %3) #5 align 2 {
  %5 = alloca ptr, align 8
  %6 = alloca float, align 4
  %7 = alloca float, align 4
  %8 = alloca float, align 4
  %9 = alloca float, align 4
  %10 = alloca float, align 4
  %11 = alloca float, align 4
  %12 = alloca float, align 4
  %13 = alloca float, align 4
  %14 = alloca float, align 4
  store ptr %0, ptr %5, align 8
  store float %1, ptr %6, align 4
  store float %2, ptr %7, align 4
  store float %3, ptr %8, align 4
  %15 = load float, ptr %6, align 4
  %16 = load float, ptr %7, align 4
  %17 = load float, ptr %8, align 4
  call void @glColor4f(float noundef %15, float noundef %16, float noundef %17, float noundef 1.000000e+00)
  call void @glBegin(i32 noundef 1)
  call void @glVertex3f(float noundef 0.000000e+00, float noundef 0.000000e+00, float noundef -1.000000e+00)
  call void @glVertex3f(float noundef 0.000000e+00, float noundef 0.000000e+00, float noundef 1.000000e+00)
  call void @glEnd()
  call void @glBegin(i32 noundef 1)
  call void @glVertex3f(float noundef 0.000000e+00, float noundef 0.000000e+00, float noundef 1.000000e+00)
  call void @glVertex3f(float noundef 0x3FB99999A0000000, float noundef 0.000000e+00, float noundef 0x3FF19999A0000000)
  call void @glVertex3f(float noundef 0.000000e+00, float noundef 0.000000e+00, float noundef 1.000000e+00)
  call void @glVertex3f(float noundef 0xBFB99999A0000000, float noundef 0.000000e+00, float noundef 0x3FF19999A0000000)
  call void @glVertex3f(float noundef 0.000000e+00, float noundef 0.000000e+00, float noundef 1.000000e+00)
  call void @glVertex3f(float noundef 0.000000e+00, float noundef 0xBFB99999A0000000, float noundef 0x3FF19999A0000000)
  call void @glVertex3f(float noundef 0.000000e+00, float noundef 0.000000e+00, float noundef 1.000000e+00)
  call void @glVertex3f(float noundef 0.000000e+00, float noundef 0x3FB99999A0000000, float noundef 0x3FF19999A0000000)
  call void @glVertex3f(float noundef 0.000000e+00, float noundef 0.000000e+00, float noundef 0x3FF3333340000000)
  call void @glVertex3f(float noundef 0x3FB99999A0000000, float noundef 0.000000e+00, float noundef 0x3FF19999A0000000)
  call void @glVertex3f(float noundef 0.000000e+00, float noundef 0.000000e+00, float noundef 0x3FF3333340000000)
  call void @glVertex3f(float noundef 0xBFB99999A0000000, float noundef 0.000000e+00, float noundef 0x3FF19999A0000000)
  call void @glVertex3f(float noundef 0.000000e+00, float noundef 0.000000e+00, float noundef 0x3FF3333340000000)
  call void @glVertex3f(float noundef 0.000000e+00, float noundef 0xBFB99999A0000000, float noundef 0x3FF19999A0000000)
  call void @glVertex3f(float noundef 0.000000e+00, float noundef 0.000000e+00, float noundef 0x3FF3333340000000)
  call void @glVertex3f(float noundef 0.000000e+00, float noundef 0x3FB99999A0000000, float noundef 0x3FF19999A0000000)
  call void @glEnd()
  call void @glBegin(i32 noundef 1)
  call void @glVertex3f(float noundef 0.000000e+00, float noundef 0.000000e+00, float noundef -1.000000e+00)
  call void @glVertex3f(float noundef 0x3FB99999A0000000, float noundef 0.000000e+00, float noundef 0xBFF19999A0000000)
  call void @glVertex3f(float noundef 0.000000e+00, float noundef 0.000000e+00, float noundef -1.000000e+00)
  call void @glVertex3f(float noundef 0xBFB99999A0000000, float noundef 0.000000e+00, float noundef 0xBFF19999A0000000)
  call void @glVertex3f(float noundef 0.000000e+00, float noundef 0.000000e+00, float noundef -1.000000e+00)
  call void @glVertex3f(float noundef 0.000000e+00, float noundef 0xBFB99999A0000000, float noundef 0xBFF19999A0000000)
  call void @glVertex3f(float noundef 0.000000e+00, float noundef 0.000000e+00, float noundef -1.000000e+00)
  call void @glVertex3f(float noundef 0.000000e+00, float noundef 0x3FB99999A0000000, float noundef 0xBFF19999A0000000)
  call void @glVertex3f(float noundef 0.000000e+00, float noundef 0.000000e+00, float noundef 0xBFF3333340000000)
  call void @glVertex3f(float noundef 0x3FB99999A0000000, float noundef 0.000000e+00, float noundef 0xBFF19999A0000000)
  call void @glVertex3f(float noundef 0.000000e+00, float noundef 0.000000e+00, float noundef 0xBFF3333340000000)
  call void @glVertex3f(float noundef 0xBFB99999A0000000, float noundef 0.000000e+00, float noundef 0xBFF19999A0000000)
  call void @glVertex3f(float noundef 0.000000e+00, float noundef 0.000000e+00, float noundef 0xBFF3333340000000)
  call void @glVertex3f(float noundef 0.000000e+00, float noundef 0xBFB99999A0000000, float noundef 0xBFF19999A0000000)
  call void @glVertex3f(float noundef 0.000000e+00, float noundef 0.000000e+00, float noundef 0xBFF3333340000000)
  call void @glVertex3f(float noundef 0.000000e+00, float noundef 0x3FB99999A0000000, float noundef 0xBFF19999A0000000)
  call void @glEnd()
  store float 1.000000e+00, ptr %9, align 4
  %18 = load float, ptr %6, align 4
  %19 = fadd float %18, 0x3FC99999A0000000
  store float %19, ptr %10, align 4
  %20 = call noundef nonnull align 4 dereferenceable(4) ptr @_ZSt3minIfERKT_S2_S2_(ptr noundef nonnull align 4 dereferenceable(4) %9, ptr noundef nonnull align 4 dereferenceable(4) %10)
  %21 = load float, ptr %20, align 4
  store float 1.000000e+00, ptr %11, align 4
  %22 = load float, ptr %7, align 4
  %23 = fadd float %22, 0x3FC99999A0000000
  store float %23, ptr %12, align 4
  %24 = call noundef nonnull align 4 dereferenceable(4) ptr @_ZSt3minIfERKT_S2_S2_(ptr noundef nonnull align 4 dereferenceable(4) %11, ptr noundef nonnull align 4 dereferenceable(4) %12)
  %25 = load float, ptr %24, align 4
  store float 1.000000e+00, ptr %13, align 4
  %26 = load float, ptr %8, align 4
  %27 = fadd float %26, 0x3FC99999A0000000
  store float %27, ptr %14, align 4
  %28 = call noundef nonnull align 4 dereferenceable(4) ptr @_ZSt3minIfERKT_S2_S2_(ptr noundef nonnull align 4 dereferenceable(4) %13, ptr noundef nonnull align 4 dereferenceable(4) %14)
  %29 = load float, ptr %28, align 4
  call void @glColor4f(float noundef %21, float noundef %25, float noundef %29, float noundef 5.000000e-01)
  call void @glBegin(i32 noundef 6)
  call void @glVertex3f(float noundef 0.000000e+00, float noundef 0.000000e+00, float noundef 0x3FF3333340000000)
  call void @glVertex3f(float noundef 0.000000e+00, float noundef 0x3FB99999A0000000, float noundef 0x3FF19999A0000000)
  call void @glVertex3f(float noundef 0xBFB99999A0000000, float noundef 0.000000e+00, float noundef 0x3FF19999A0000000)
  call void @glVertex3f(float noundef 0.000000e+00, float noundef 0xBFB99999A0000000, float noundef 0x3FF19999A0000000)
  call void @glVertex3f(float noundef 0x3FB99999A0000000, float noundef 0.000000e+00, float noundef 0x3FF19999A0000000)
  call void @glVertex3f(float noundef 0.000000e+00, float noundef 0x3FB99999A0000000, float noundef 0x3FF19999A0000000)
  call void @glEnd()
  call void @glBegin(i32 noundef 6)
  call void @glVertex3f(float noundef 0.000000e+00, float noundef 0.000000e+00, float noundef 1.000000e+00)
  call void @glVertex3f(float noundef 0.000000e+00, float noundef 0x3FB99999A0000000, float noundef 0x3FF19999A0000000)
  call void @glVertex3f(float noundef 0xBFB99999A0000000, float noundef 0.000000e+00, float noundef 0x3FF19999A0000000)
  call void @glVertex3f(float noundef 0.000000e+00, float noundef 0xBFB99999A0000000, float noundef 0x3FF19999A0000000)
  call void @glVertex3f(float noundef 0x3FB99999A0000000, float noundef 0.000000e+00, float noundef 0x3FF19999A0000000)
  call void @glVertex3f(float noundef 0.000000e+00, float noundef 0x3FB99999A0000000, float noundef 0x3FF19999A0000000)
  call void @glEnd()
  call void @glBegin(i32 noundef 6)
  call void @glVertex3f(float noundef 0.000000e+00, float noundef 0.000000e+00, float noundef 0xBFF3333340000000)
  call void @glVertex3f(float noundef 0.000000e+00, float noundef 0x3FB99999A0000000, float noundef 0xBFF19999A0000000)
  call void @glVertex3f(float noundef 0xBFB99999A0000000, float noundef 0.000000e+00, float noundef 0xBFF19999A0000000)
  call void @glVertex3f(float noundef 0.000000e+00, float noundef 0xBFB99999A0000000, float noundef 0xBFF19999A0000000)
  call void @glVertex3f(float noundef 0x3FB99999A0000000, float noundef 0.000000e+00, float noundef 0xBFF19999A0000000)
  call void @glVertex3f(float noundef 0.000000e+00, float noundef 0x3FB99999A0000000, float noundef 0xBFF19999A0000000)
  call void @glEnd()
  call void @glBegin(i32 noundef 6)
  call void @glVertex3f(float noundef 0.000000e+00, float noundef 0.000000e+00, float noundef -1.000000e+00)
  call void @glVertex3f(float noundef 0.000000e+00, float noundef 0x3FB99999A0000000, float noundef 0xBFF19999A0000000)
  call void @glVertex3f(float noundef 0xBFB99999A0000000, float noundef 0.000000e+00, float noundef 0xBFF19999A0000000)
  call void @glVertex3f(float noundef 0.000000e+00, float noundef 0xBFB99999A0000000, float noundef 0xBFF19999A0000000)
  call void @glVertex3f(float noundef 0x3FB99999A0000000, float noundef 0.000000e+00, float noundef 0xBFF19999A0000000)
  call void @glVertex3f(float noundef 0.000000e+00, float noundef 0x3FB99999A0000000, float noundef 0xBFF19999A0000000)
  call void @glEnd()
  ret void
}