; Function Attrs: mustprogress uwtable
define void @_ZN22EditManipulatorsPlugin9DrawCubesEfff(ptr nocapture nonnull readnone align 8 %0, float noundef %1, float noundef %2, float noundef %3) local_unnamed_addr #9 align 2 {
  tail call void @glColor4f(float noundef %1, float noundef %2, float noundef %3, float noundef 1.000000e+00)
  tail call void @glBegin(i32 noundef 1)
  tail call void @glVertex3f(float noundef 0.000000e+00, float noundef 0.000000e+00, float noundef -1.000000e+00)
  tail call void @glVertex3f(float noundef 0.000000e+00, float noundef 0.000000e+00, float noundef 1.000000e+00)
  tail call void @glEnd()
  tail call void @glBegin(i32 noundef 1)
  tail call void @glVertex3f(float noundef 0.000000e+00, float noundef 0.000000e+00, float noundef 1.000000e+00)
  tail call void @glVertex3f(float noundef 0x3FB99999A0000000, float noundef 0.000000e+00, float noundef 0x3FF19999A0000000)
  tail call void @glVertex3f(float noundef 0.000000e+00, float noundef 0.000000e+00, float noundef 1.000000e+00)
  tail call void @glVertex3f(float noundef 0xBFB99999A0000000, float noundef 0.000000e+00, float noundef 0x3FF19999A0000000)
  tail call void @glVertex3f(float noundef 0.000000e+00, float noundef 0.000000e+00, float noundef 1.000000e+00)
  tail call void @glVertex3f(float noundef 0.000000e+00, float noundef 0xBFB99999A0000000, float noundef 0x3FF19999A0000000)
  tail call void @glVertex3f(float noundef 0.000000e+00, float noundef 0.000000e+00, float noundef 1.000000e+00)
  tail call void @glVertex3f(float noundef 0.000000e+00, float noundef 0x3FB99999A0000000, float noundef 0x3FF19999A0000000)
  tail call void @glVertex3f(float noundef 0.000000e+00, float noundef 0.000000e+00, float noundef 0x3FF3333340000000)
  tail call void @glVertex3f(float noundef 0x3FB99999A0000000, float noundef 0.000000e+00, float noundef 0x3FF19999A0000000)
  tail call void @glVertex3f(float noundef 0.000000e+00, float noundef 0.000000e+00, float noundef 0x3FF3333340000000)
  tail call void @glVertex3f(float noundef 0xBFB99999A0000000, float noundef 0.000000e+00, float noundef 0x3FF19999A0000000)
  tail call void @glVertex3f(float noundef 0.000000e+00, float noundef 0.000000e+00, float noundef 0x3FF3333340000000)
  tail call void @glVertex3f(float noundef 0.000000e+00, float noundef 0xBFB99999A0000000, float noundef 0x3FF19999A0000000)
  tail call void @glVertex3f(float noundef 0.000000e+00, float noundef 0.000000e+00, float noundef 0x3FF3333340000000)
  tail call void @glVertex3f(float noundef 0.000000e+00, float noundef 0x3FB99999A0000000, float noundef 0x3FF19999A0000000)
  tail call void @glEnd()
  tail call void @glBegin(i32 noundef 1)
  tail call void @glVertex3f(float noundef 0.000000e+00, float noundef 0.000000e+00, float noundef -1.000000e+00)
  tail call void @glVertex3f(float noundef 0x3FB99999A0000000, float noundef 0.000000e+00, float noundef 0xBFF19999A0000000)
  tail call void @glVertex3f(float noundef 0.000000e+00, float noundef 0.000000e+00, float noundef -1.000000e+00)
  tail call void @glVertex3f(float noundef 0xBFB99999A0000000, float noundef 0.000000e+00, float noundef 0xBFF19999A0000000)
  tail call void @glVertex3f(float noundef 0.000000e+00, float noundef 0.000000e+00, float noundef -1.000000e+00)
  tail call void @glVertex3f(float noundef 0.000000e+00, float noundef 0xBFB99999A0000000, float noundef 0xBFF19999A0000000)
  tail call void @glVertex3f(float noundef 0.000000e+00, float noundef 0.000000e+00, float noundef -1.000000e+00)
  tail call void @glVertex3f(float noundef 0.000000e+00, float noundef 0x3FB99999A0000000, float noundef 0xBFF19999A0000000)
  tail call void @glVertex3f(float noundef 0.000000e+00, float noundef 0.000000e+00, float noundef 0xBFF3333340000000)
  tail call void @glVertex3f(float noundef 0x3FB99999A0000000, float noundef 0.000000e+00, float noundef 0xBFF19999A0000000)
  tail call void @glVertex3f(float noundef 0.000000e+00, float noundef 0.000000e+00, float noundef 0xBFF3333340000000)
  tail call void @glVertex3f(float noundef 0xBFB99999A0000000, float noundef 0.000000e+00, float noundef 0xBFF19999A0000000)
  tail call void @glVertex3f(float noundef 0.000000e+00, float noundef 0.000000e+00, float noundef 0xBFF3333340000000)
  tail call void @glVertex3f(float noundef 0.000000e+00, float noundef 0xBFB99999A0000000, float noundef 0xBFF19999A0000000)
  tail call void @glVertex3f(float noundef 0.000000e+00, float noundef 0.000000e+00, float noundef 0xBFF3333340000000)
  tail call void @glVertex3f(float noundef 0.000000e+00, float noundef 0x3FB99999A0000000, float noundef 0xBFF19999A0000000)
  tail call void @glEnd()
  %5 = fadd float %1, 0x3FC99999A0000000
  %6 = fcmp olt float %5, 1.000000e+00
  %.sroa.speculated14 = select i1 %6, float %5, float 1.000000e+00
  %7 = fadd float %2, 0x3FC99999A0000000
  %8 = fcmp olt float %7, 1.000000e+00
  %.sroa.speculated9 = select i1 %8, float %7, float 1.000000e+00
  %9 = fadd float %3, 0x3FC99999A0000000
  %10 = fcmp olt float %9, 1.000000e+00
  %.sroa.speculated = select i1 %10, float %9, float 1.000000e+00
  tail call void @glColor4f(float noundef %.sroa.speculated14, float noundef %.sroa.speculated9, float noundef %.sroa.speculated, float noundef 5.000000e-01)
  tail call void @glBegin(i32 noundef 6)
  tail call void @glVertex3f(float noundef 0.000000e+00, float noundef 0.000000e+00, float noundef 0x3FF3333340000000)
  tail call void @glVertex3f(float noundef 0.000000e+00, float noundef 0x3FB99999A0000000, float noundef 0x3FF19999A0000000)
  tail call void @glVertex3f(float noundef 0xBFB99999A0000000, float noundef 0.000000e+00, float noundef 0x3FF19999A0000000)
  tail call void @glVertex3f(float noundef 0.000000e+00, float noundef 0xBFB99999A0000000, float noundef 0x3FF19999A0000000)
  tail call void @glVertex3f(float noundef 0x3FB99999A0000000, float noundef 0.000000e+00, float noundef 0x3FF19999A0000000)
  tail call void @glVertex3f(float noundef 0.000000e+00, float noundef 0x3FB99999A0000000, float noundef 0x3FF19999A0000000)
  tail call void @glEnd()
  tail call void @glBegin(i32 noundef 6)
  tail call void @glVertex3f(float noundef 0.000000e+00, float noundef 0.000000e+00, float noundef 1.000000e+00)
  tail call void @glVertex3f(float noundef 0.000000e+00, float noundef 0x3FB99999A0000000, float noundef 0x3FF19999A0000000)
  tail call void @glVertex3f(float noundef 0xBFB99999A0000000, float noundef 0.000000e+00, float noundef 0x3FF19999A0000000)
  tail call void @glVertex3f(float noundef 0.000000e+00, float noundef 0xBFB99999A0000000, float noundef 0x3FF19999A0000000)
  tail call void @glVertex3f(float noundef 0x3FB99999A0000000, float noundef 0.000000e+00, float noundef 0x3FF19999A0000000)
  tail call void @glVertex3f(float noundef 0.000000e+00, float noundef 0x3FB99999A0000000, float noundef 0x3FF19999A0000000)
  tail call void @glEnd()
  tail call void @glBegin(i32 noundef 6)
  tail call void @glVertex3f(float noundef 0.000000e+00, float noundef 0.000000e+00, float noundef 0xBFF3333340000000)
  tail call void @glVertex3f(float noundef 0.000000e+00, float noundef 0x3FB99999A0000000, float noundef 0xBFF19999A0000000)
  tail call void @glVertex3f(float noundef 0xBFB99999A0000000, float noundef 0.000000e+00, float noundef 0xBFF19999A0000000)
  tail call void @glVertex3f(float noundef 0.000000e+00, float noundef 0xBFB99999A0000000, float noundef 0xBFF19999A0000000)
  tail call void @glVertex3f(float noundef 0x3FB99999A0000000, float noundef 0.000000e+00, float noundef 0xBFF19999A0000000)
  tail call void @glVertex3f(float noundef 0.000000e+00, float noundef 0x3FB99999A0000000, float noundef 0xBFF19999A0000000)
  tail call void @glEnd()
  tail call void @glBegin(i32 noundef 6)
  tail call void @glVertex3f(float noundef 0.000000e+00, float noundef 0.000000e+00, float noundef -1.000000e+00)
  tail call void @glVertex3f(float noundef 0.000000e+00, float noundef 0x3FB99999A0000000, float noundef 0xBFF19999A0000000)
  tail call void @glVertex3f(float noundef 0xBFB99999A0000000, float noundef 0.000000e+00, float noundef 0xBFF19999A0000000)
  tail call void @glVertex3f(float noundef 0.000000e+00, float noundef 0xBFB99999A0000000, float noundef 0xBFF19999A0000000)
  tail call void @glVertex3f(float noundef 0x3FB99999A0000000, float noundef 0.000000e+00, float noundef 0xBFF19999A0000000)
  tail call void @glVertex3f(float noundef 0.000000e+00, float noundef 0x3FB99999A0000000, float noundef 0xBFF19999A0000000)
  tail call void @glEnd()
  ret void
}